; Function Attrs: nounwind uwtable
define internal fastcc noundef ptr @transformJsonArrayAgg(ptr noundef %0, ptr noundef nonnull readonly captures(none) %1) unnamed_addr #0 {
  %3 = getelementptr inbounds nuw i8, ptr %1, i64 16
  %4 = load ptr, ptr %3, align 8
  %5 = tail call fastcc ptr @transformJsonValueExpr(ptr noundef %0, ptr noundef nonnull @.str.154, ptr noundef %4, i32 noundef 0, i32 noundef 0, i1 noundef zeroext false)
  %6 = getelementptr inbounds nuw i8, ptr %1, i64 8
  %7 = load ptr, ptr %6, align 8
  %8 = getelementptr inbounds nuw i8, ptr %7, i64 8
  %9 = load ptr, ptr %8, align 8
  %10 = tail call ptr @list_make1_impl(i32 noundef 1, ptr %5) #9
  %11 = tail call fastcc ptr @transformJsonOutput(ptr noundef %0, ptr noundef %9, i1 noundef zeroext true)
  %12 = getelementptr inbounds nuw i8, ptr %11, i64 16
  %13 = load i32, ptr %12, align 8
  %.not.i = icmp eq i32 %13, 0
  br i1 %.not.i, label %.preheader.i, label %transformJsonConstructorOutput.exit

.preheader.i:                                     ; preds = %2
  %.not23.i = icmp eq ptr %10, null
  br i1 %.not23.i, label %.split.i, label %.lr.ph.i

.lr.ph.i:                                         ; preds = %.preheader.i
  %14 = getelementptr inbounds nuw i8, ptr %10, i64 4
  %15 = getelementptr inbounds nuw i8, ptr %10, i64 16
  %16 = load i32, ptr %14, align 4
  %17 = icmp sgt i32 %16, 0
  br i1 %17, label %.lr.ph34.i, label %.split.i

18:                                               ; preds = %.lr.ph34.i
  %indvars.iv.next.i = add nuw nsw i64 %indvars.iv.i, 1
  %19 = load i32, ptr %14, align 4
  %20 = sext i32 %19 to i64
  %21 = icmp slt i64 %indvars.iv.next.i, %20
  br i1 %21, label %.lr.ph34.i, label %.split.i

.lr.ph34.i:                                       ; preds = %.lr.ph.i, %18
  %indvars.iv.i = phi i64 [ %indvars.iv.next.i, %18 ], [ 0, %.lr.ph.i ]
  %22 = load ptr, ptr %15, align 8
  %23 = getelementptr inbounds nuw %union.ListCell, ptr %22, i64 %indvars.iv.i
  %24 = load ptr, ptr %23, align 8
  %25 = tail call i32 @exprType(ptr noundef %24) #9
  %.not30.i = icmp eq i32 %25, 3802
  br i1 %.not30.i, label %.split.i, label %18

.split.i:                                         ; preds = %.lr.ph34.i, %18, %.lr.ph.i, %.preheader.i
  %.sink39.i = phi i32 [ 114, %.lr.ph.i ], [ 114, %.preheader.i ], [ 114, %18 ], [ 3802, %.lr.ph34.i ]
  %.sink.i = phi i32 [ 1, %.lr.ph.i ], [ 1, %.preheader.i ], [ 1, %18 ], [ 2, %.lr.ph34.i ]
  store i32 %.sink39.i, ptr %12, align 8
  %26 = getelementptr inbounds nuw i8, ptr %11, i64 8
  %27 = load ptr, ptr %26, align 8
  %28 = getelementptr inbounds nuw i8, ptr %27, i64 4
  store i32 %.sink.i, ptr %28, align 4
  %29 = getelementptr inbounds nuw i8, ptr %11, i64 20
  store i32 -1, ptr %29, align 4
  br label %transformJsonConstructorOutput.exit

transformJsonConstructorOutput.exit:              ; preds = %2, %.split.i
  %30 = getelementptr inbounds nuw i8, ptr %11, i64 8
  %31 = load ptr, ptr %30, align 8
  %32 = getelementptr inbounds nuw i8, ptr %31, i64 4
  %33 = load i32, ptr %32, align 4
  %34 = icmp eq i32 %33, 2
  %35 = getelementptr inbounds nuw i8, ptr %1, i64 24
  %36 = load i8, ptr %35, align 8, !range !4, !noundef !5
  %37 = trunc nuw i8 %36 to i1
  %38 = select i1 %37, i32 6284, i32 3267
  %39 = select i1 %37, i32 6276, i32 3175
  %.015 = select i1 %34, i32 3802, i32 114
  %.0 = select i1 %34, i32 %38, i32 %39
  %40 = load ptr, ptr %6, align 8
  %41 = tail call ptr @list_make1_impl(i32 noundef 1, ptr %5) #9
  %42 = getelementptr inbounds nuw i8, ptr %1, i64 24
  %43 = load i8, ptr %42, align 8, !range !4, !noundef !5
  %44 = trunc nuw i8 %43 to i1
  %45 = tail call fastcc ptr @transformJsonAggConstructor(ptr noundef %0, ptr noundef %40, ptr noundef nonnull %11, ptr noundef %41, i32 noundef %.0, i32 noundef %.015, i32 noundef 4, i1 noundef zeroext false, i1 noundef zeroext %44)
  ret ptr %45
}